; Function Attrs: mustprogress uwtable
define hidden void @_ZN7datalog7context15transform_rulesERNS_16rule_transformerE(ptr noundef nonnull align 8 dereferenceable(3556) %this, ptr noundef nonnull align 8 dereferenceable(32) %transf) local_unnamed_addr #3 align 2 {
entry:
  %m_rule_set = getelementptr inbounds i8, ptr %this, i64 2888
  %call = tail call noundef zeroext i1 @_ZN7datalog16rule_transformerclERNS_8rule_setE(ptr noundef nonnull align 8 dereferenceable(32) %transf, ptr noundef nonnull align 8 dereferenceable(248) %m_rule_set)
  br i1 %call, label %if.then, label %if.end

if.then:                                          ; preds = %entry
  tail call void @_ZN7datalog8rule_set13ensure_closedEv(ptr noundef nonnull align 8 dereferenceable(248) %m_rule_set)
  br label %if.end

if.end:                                           ; preds = %if.then, %entry
  ret void
}